; Function Attrs: nounwind uwtable
define ptr @l_Lean_RBMap_toArray___at_Lean_Meta_initFn____x40_Lean_Meta_CongrTheorems___hyg_5266____spec__1___boxed(ptr noundef %0) #1 {
  %2 = load ptr, ptr @l_Lean_Meta_mkHCongrWithArity_withNewEqs___rarg___closed__1, align 8, !tbaa !10
  %3 = tail call ptr @l_Lean_RBNode_fold___at_Lean_Meta_initFn____x40_Lean_Meta_CongrTheorems___hyg_5266____spec__2(ptr noundef %2, ptr noundef %0)
  %4 = ptrtoint ptr %0 to i64
  %5 = and i64 %4, 1
  %.not = icmp eq i64 %5, 0
  br i1 %.not, label %6, label %lean_dec.exit

6:                                                ; preds = %1
  %7 = load i32, ptr %0, align 4, !tbaa !4
  %8 = icmp sgt i32 %7, 1
  br i1 %8, label %9, label %11, !prof !9

9:                                                ; preds = %6
  %10 = add nsw i32 %7, -1
  store i32 %10, ptr %0, align 4, !tbaa !4
  br label %lean_dec.exit

11:                                               ; preds = %6
  %.not.i = icmp eq i32 %7, 0
  br i1 %.not.i, label %lean_dec.exit, label %12

12:                                               ; preds = %11
  tail call void @lean_dec_ref_cold(ptr noundef nonnull %0) #7
  br label %lean_dec.exit

lean_dec.exit:                                    ; preds = %12, %11, %9, %1
  ret ptr %3
}